target datalayout = "e-m:e-p270:32:32-p271:32:32-p272:64:64-i64:64-i128:128-f80:128-n8:16:32:64-S128"
target triple = "x86_64-pc-linux-gnu"

%struct.hwloc_infos_s = type { ptr, i32, i32 }
%struct.hwloc_internal_location_s = type { i32, %union.anon }
%union.anon = type { %struct.anon }
%struct.anon = type { ptr, i64, i32 }
%struct.hwloc_obj = type { i32, ptr, i32, ptr, i64, ptr, i32, i32, ptr, ptr, ptr, i32, ptr, ptr, i32, ptr, ptr, ptr, i32, i32, ptr, i32, ptr, i32, ptr, ptr, ptr, ptr, ptr, %struct.hwloc_infos_s, ptr, i64 }
%struct.hwloc_location = type { i32, %union.hwloc_location_u }
%union.hwloc_location_u = type { ptr }

; Function Attrs: nounwind uwtable
define internal i32 @to_internal_location(ptr noundef %0, ptr noundef %1) #0 {
  %3 = alloca i32, align 4
  %4 = alloca ptr, align 8
  %5 = alloca ptr, align 8
  store ptr %0, ptr %4, align 8, !tbaa !99
  store ptr %1, ptr %5, align 8, !tbaa !79
  %6 = load ptr, ptr %5, align 8, !tbaa !79
  %7 = getelementptr inbounds nuw %struct.hwloc_location, ptr %6, i32 0, i32 0
  %8 = load i32, ptr %7, align 8, !tbaa !102
  %9 = load ptr, ptr %4, align 8, !tbaa !99
  %10 = getelementptr inbounds nuw %struct.hwloc_internal_location_s, ptr %9, i32 0, i32 0
  store i32 %8, ptr %10, align 8, !tbaa !101
  %11 = load ptr, ptr %5, align 8, !tbaa !79
  %12 = getelementptr inbounds nuw %struct.hwloc_location, ptr %11, i32 0, i32 0
  %13 = load i32, ptr %12, align 8, !tbaa !102
  switch i32 %13, label %57 [
    i32 1, label %14
    i32 0, label %33
  ]

14:                                               ; preds = %2
  %15 = load ptr, ptr %5, align 8, !tbaa !79
  %16 = getelementptr inbounds nuw %struct.hwloc_location, ptr %15, i32 0, i32 1
  %17 = load ptr, ptr %16, align 8, !tbaa !63
  %18 = icmp ne ptr %17, null
  br i1 %18, label %19, label %25

19:                                               ; preds = %14
  %20 = load ptr, ptr %5, align 8, !tbaa !79
  %21 = getelementptr inbounds nuw %struct.hwloc_location, ptr %20, i32 0, i32 1
  %22 = load ptr, ptr %21, align 8, !tbaa !63
  %23 = call i32 @hwloc_bitmap_iszero(ptr noundef %22) #15
  %24 = icmp ne i32 %23, 0
  br i1 %24, label %25, label %27

25:                                               ; preds = %19, %14
  %26 = call ptr @__errno_location() #16
  store i32 22, ptr %26, align 4, !tbaa !45
  store i32 -1, ptr %3, align 4
  br label %59

27:                                               ; preds = %19
  %28 = load ptr, ptr %5, align 8, !tbaa !79
  %29 = getelementptr inbounds nuw %struct.hwloc_location, ptr %28, i32 0, i32 1
  %30 = load ptr, ptr %29, align 8, !tbaa !63
  %31 = load ptr, ptr %4, align 8, !tbaa !99
  %32 = getelementptr inbounds nuw %struct.hwloc_internal_location_s, ptr %31, i32 0, i32 1
  store ptr %30, ptr %32, align 8, !tbaa !63
  store i32 0, ptr %3, align 4
  br label %59

33:                                               ; preds = %2
  %34 = load ptr, ptr %5, align 8, !tbaa !79
  %35 = getelementptr inbounds nuw %struct.hwloc_location, ptr %34, i32 0, i32 1
  %36 = load ptr, ptr %35, align 8, !tbaa !63
  %37 = icmp ne ptr %36, null
  br i1 %37, label %40, label %38

38:                                               ; preds = %33
  %39 = call ptr @__errno_location() #16
  store i32 22, ptr %39, align 4, !tbaa !45
  store i32 -1, ptr %3, align 4
  br label %59

40:                                               ; preds = %33
  %41 = load ptr, ptr %5, align 8, !tbaa !79
  %42 = getelementptr inbounds nuw %struct.hwloc_location, ptr %41, i32 0, i32 1
  %43 = load ptr, ptr %42, align 8, !tbaa !63
  %44 = getelementptr inbounds nuw %struct.hwloc_obj, ptr %43, i32 0, i32 31
  %45 = load i64, ptr %44, align 8, !tbaa !92
  %46 = load ptr, ptr %4, align 8, !tbaa !99
  %47 = getelementptr inbounds nuw %struct.hwloc_internal_location_s, ptr %46, i32 0, i32 1
  %48 = getelementptr inbounds nuw %struct.anon, ptr %47, i32 0, i32 1
  store i64 %45, ptr %48, align 8, !tbaa !63
  %49 = load ptr, ptr %5, align 8, !tbaa !79
  %50 = getelementptr inbounds nuw %struct.hwloc_location, ptr %49, i32 0, i32 1
  %51 = load ptr, ptr %50, align 8, !tbaa !63
  %52 = getelementptr inbounds nuw %struct.hwloc_obj, ptr %51, i32 0, i32 0
  %53 = load i32, ptr %52, align 8, !tbaa !87
  %54 = load ptr, ptr %4, align 8, !tbaa !99
  %55 = getelementptr inbounds nuw %struct.hwloc_internal_location_s, ptr %54, i32 0, i32 1
  %56 = getelementptr inbounds nuw %struct.anon, ptr %55, i32 0, i32 2
  store i32 %53, ptr %56, align 8, !tbaa !63
  store i32 0, ptr %3, align 4
  br label %59

57:                                               ; preds = %2
  %58 = call ptr @__errno_location() #16
  store i32 22, ptr %58, align 4, !tbaa !45
  store i32 -1, ptr %3, align 4
  br label %59

59:                                               ; preds = %57, %40, %38, %27, %25
  %60 = load i32, ptr %3, align 4
  ret i32 %60
}

; Function Attrs: nounwind uwtable
define i32 @hwloc_memattr_set_value(ptr noundef %0, i32 noundef %1, ptr noundef %2, ptr noundef %3, i64 noundef %4, i64 noundef %5) #0 {
  %7 = alloca i32, align 4
  %8 = alloca ptr, align 8
  %9 = alloca i32, align 4
  %10 = alloca ptr, align 8
  %11 = alloca ptr, align 8
  %12 = alloca i64, align 8
  %13 = alloca i64, align 8
  %14 = alloca %struct.hwloc_internal_location_s, align 8
  %15 = alloca ptr, align 8
  %16 = alloca i32, align 4
  store ptr %0, ptr %8, align 8, !tbaa !3
  store i32 %1, ptr %9, align 4, !tbaa !45
  store ptr %2, ptr %10, align 8, !tbaa !83
  store ptr %3, ptr %11, align 8, !tbaa !79
  store i64 %4, ptr %12, align 8, !tbaa !37
  store i64 %5, ptr %13, align 8, !tbaa !37
  call void @llvm.lifetime.start.p0(i64 32, ptr %14) #14
  call void @llvm.lifetime.start.p0(i64 8, ptr %15) #14
  %17 = load i64, ptr %12, align 8, !tbaa !37
  %18 = icmp ne i64 %17, 0
  br i1 %18, label %22, label %19

19:                                               ; preds = %6
  %20 = load ptr, ptr %10, align 8, !tbaa !83
  %21 = icmp ne ptr %20, null
  br i1 %21, label %24, label %22

22:                                               ; preds = %19, %6
  %23 = call ptr @__errno_location() #16
  store i32 22, ptr %23, align 4, !tbaa !45
  store i32 -1, ptr %7, align 4
  store i32 1, ptr %16, align 4
  br label %50

24:                                               ; preds = %19
  %25 = load ptr, ptr %11, align 8, !tbaa !79
  %26 = icmp ne ptr %25, null
  br i1 %26, label %27, label %34

27:                                               ; preds = %24
  %28 = load ptr, ptr %11, align 8, !tbaa !79
  %29 = call i32 @to_internal_location(ptr noundef %14, ptr noundef %28)
  %30 = icmp slt i32 %29, 0
  br i1 %30, label %31, label %33

31:                                               ; preds = %27
  %32 = call ptr @__errno_location() #16
  store i32 22, ptr %32, align 4, !tbaa !45
  store i32 -1, ptr %7, align 4
  store i32 1, ptr %16, align 4
  br label %50

33:                                               ; preds = %27
  store ptr %14, ptr %15, align 8, !tbaa !99
  br label %35

34:                                               ; preds = %24
  store ptr null, ptr %15, align 8, !tbaa !99
  br label %35

35:                                               ; preds = %34, %33
  %36 = load ptr, ptr %8, align 8, !tbaa !3
  %37 = load i32, ptr %9, align 4, !tbaa !45
  %38 = load ptr, ptr %10, align 8, !tbaa !83
  %39 = getelementptr inbounds nuw %struct.hwloc_obj, ptr %38, i32 0, i32 0
  %40 = load i32, ptr %39, align 8, !tbaa !87
  %41 = load ptr, ptr %10, align 8, !tbaa !83
  %42 = getelementptr inbounds nuw %struct.hwloc_obj, ptr %41, i32 0, i32 31
  %43 = load i64, ptr %42, align 8, !tbaa !92
  %44 = load ptr, ptr %10, align 8, !tbaa !83
  %45 = getelementptr inbounds nuw %struct.hwloc_obj, ptr %44, i32 0, i32 2
  %46 = load i32, ptr %45, align 8, !tbaa !93
  %47 = load ptr, ptr %15, align 8, !tbaa !99
  %48 = load i64, ptr %13, align 8, !tbaa !37
  %49 = call i32 @hwloc__internal_memattr_set_value(ptr noundef %36, i32 noundef %37, i32 noundef %40, i64 noundef %43, i32 noundef %46, ptr noundef %47, i64 noundef %48)
  store i32 %49, ptr %7, align 4
  store i32 1, ptr %16, align 4
  br label %50

50:                                               ; preds = %35, %31, %22
  call void @llvm.lifetime.end.p0(i64 8, ptr %15) #14
  call void @llvm.lifetime.end.p0(i64 32, ptr %14) #14
  %51 = load i32, ptr %7, align 4
  ret i32 %51
}