; Function Attrs: nounwind uwtable
define range(i32 -1, 1) i32 @hwloc_memattr_set_value(ptr noundef %0, i32 noundef %1, ptr noundef readonly captures(address_is_null) %2, ptr noundef readonly captures(address_is_null) %3, i64 noundef %4, i64 noundef %5) local_unnamed_addr #3 {
  %7 = alloca %struct.hwloc_internal_location_s, align 8
  call void @llvm.lifetime.start.p0(i64 32, ptr nonnull %7) #29
  %8 = icmp eq i64 %4, 0
  %9 = icmp ne ptr %2, null
  %or.cond = and i1 %9, %8
  br i1 %or.cond, label %12, label %10

10:                                               ; preds = %6
  %11 = tail call ptr @__errno_location() #31
  store i32 22, ptr %11, align 4, !tbaa !60
  br label %39

12:                                               ; preds = %6
  %.not = icmp eq ptr %3, null
  br i1 %.not, label %to_internal_location.exit, label %13

13:                                               ; preds = %12
  %14 = load i32, ptr %3, align 8, !tbaa !89
  store i32 %14, ptr %7, align 8, !tbaa !93
  switch i32 %14, label %31 [
    i32 1, label %15
    i32 0, label %22
  ]

15:                                               ; preds = %13
  %16 = getelementptr inbounds nuw i8, ptr %3, i64 8
  %17 = load ptr, ptr %16, align 8, !tbaa !48
  %.not14.i = icmp eq ptr %17, null
  br i1 %.not14.i, label %31, label %18

18:                                               ; preds = %15
  %19 = tail call i32 @hwloc_bitmap_iszero(ptr noundef nonnull %17) #30
  %.not15.i = icmp eq i32 %19, 0
  br i1 %.not15.i, label %20, label %31

20:                                               ; preds = %18
  %21 = getelementptr inbounds nuw i8, ptr %7, i64 8
  store ptr %17, ptr %21, align 8, !tbaa !48
  br label %to_internal_location.exit

22:                                               ; preds = %13
  %23 = getelementptr inbounds nuw i8, ptr %3, i64 8
  %24 = load ptr, ptr %23, align 8, !tbaa !48
  %.not.i = icmp eq ptr %24, null
  br i1 %.not.i, label %31, label %25

25:                                               ; preds = %22
  %26 = getelementptr inbounds nuw i8, ptr %24, i64 240
  %27 = load i64, ptr %26, align 8, !tbaa !77
  %28 = getelementptr inbounds nuw i8, ptr %7, i64 16
  store i64 %27, ptr %28, align 8, !tbaa !48
  %29 = load i32, ptr %24, align 8, !tbaa !85
  %30 = getelementptr inbounds nuw i8, ptr %7, i64 24
  store i32 %29, ptr %30, align 8, !tbaa !48
  br label %to_internal_location.exit

31:                                               ; preds = %13, %22, %15, %18
  %32 = tail call ptr @__errno_location() #31
  store i32 22, ptr %32, align 4, !tbaa !60
  br label %39

to_internal_location.exit:                        ; preds = %25, %20, %12
  %.0 = phi ptr [ null, %12 ], [ %7, %20 ], [ %7, %25 ]
  %33 = load i32, ptr %2, align 8, !tbaa !85
  %34 = getelementptr inbounds nuw i8, ptr %2, i64 240
  %35 = load i64, ptr %34, align 8, !tbaa !77
  %36 = getelementptr inbounds nuw i8, ptr %2, i64 16
  %37 = load i32, ptr %36, align 8, !tbaa !74
  %38 = call fastcc i32 @hwloc__internal_memattr_set_value(ptr noundef %0, i32 noundef %1, i32 noundef %33, i64 noundef %35, i32 noundef %37, ptr noundef %.0, i64 noundef %5)
  br label %39

39:                                               ; preds = %to_internal_location.exit, %31, %10
  %.012 = phi i32 [ -1, %31 ], [ %38, %to_internal_location.exit ], [ -1, %10 ]
  call void @llvm.lifetime.end.p0(i64 32, ptr nonnull %7) #29
  ret i32 %.012
}